Certificate:
    Data:
        Version: 3 (0x2)
        Serial Number: 3 (0x3)
    Signature Algorithm: sha1WithRSAEncryption
        Issuer: C=ES, ST=MURCIA, O=ETHINK, OU=STA, CN=ca
        Validity
            Not Before: Jun 11 07:38:32 2013 GMT
            Not After : Jun 11 07:38:32 2014 GMT
        Subject: C=ES, ST=MURCIA, O=ETHINK, OU=STA, CN=cliente2
        Subject Public Key Info:
            Public Key Algorithm: rsaEncryption
                Public-Key: (1024 bit)
                Modulus:
                    00:c9:55:ac:4c:aa:33:dd:ac:1d:f7:14:1e:56:cf:
                    26:72:24:45:26:c4:30:34:ee:16:24:7d:b5:4e:7a:
                    27:da:24:6b:9e:ef:71:e4:0e:9e:93:2f:07:e2:77:
                    ae:76:cb:1b:14:e0:03:14:59:c2:d4:51:ef:d5:6c:
                    10:f0:70:e7:7d:73:e4:1c:a7:b4:d4:f1:66:a8:cf:
                    7e:9c:8b:ee:19:2a:5d:2a:7c:1a:2d:96:7a:5f:db:
                    53:d1:2e:11:60:66:01:ab:c1:67:6d:29:7c:bc:e5:
                    2a:15:2a:76:ae:14:53:68:80:87:34:60:d4:cd:d2:
                    dc:41:d8:ea:70:f6:fe:f6:7d
                Exponent: 65537 (0x10001)
        X509v3 extensions:
            X509v3 Basic Constraints: 
                CA:FALSE
            Netscape Comment: 
                OpenSSL Generated Certificate
            X509v3 Subject Key Identifier: 
                4C:FE:D6:69:89:5F:D4:FD:9A:DF:D8:5C:86:F1:9D:F9:96:CD:D6:1F
            X509v3 Authority Key Identifier: 
                keyid:EC:FE:A8:65:65:2E:21:2D:F2:E2:2B:26:15:3E:9C:ED:86:89:C7:8E

    Signature Algorithm: sha1WithRSAEncryption
         9f:21:69:b6:59:d9:5e:a8:dc:4f:b7:c5:b5:c0:80:da:60:f5:
         45:f2:91:ef:4a:8d:3a:f2:26:a9:d0:df:05:7a:de:52:81:c9:
         b9:d4:3f:1e:e7:08:63:c4:ae:25:a6:79:28:ac:31:9b:06:c5:
         5f:02:25:0b:3e:a9:99:67:f7:21:f7:7c:ec:41:c8:b4:e1:df:
         7c:66:97:92:4f:59:ee:26:0c:c9:26:ef:a6:20:f1:5b:ad:ef:
         fe:a3:f7:f9:7d:3d:ce:cf:b1:06:1f:5c:ee:68:19:af:fb:d4:
         d0:b5:ed:db:f2:86:cc:97:51:98:e9:ba:55:c9:6a:6b:e0:a7:
         b3:7d:8b:a6:f2:47:ae:a3:13:88:8e:37:46:c1:84:19:2f:1c:
         d2:89:a2:84:fb:81:d9:c3:f5:0c:7c:6d:cb:2f:7e:07:4c:4c:
         e3:29:40:e1:5f:42:54:d7:c4:45:1d:fb:e6:50:29:94:0b:28:
         fc:49:ac:b7:73:df:62:d8:1a:97:30:48:11:27:44:d9:d6:8f:
         d0:fd:e0:66:b7:3c:b6:93:b0:33:ce:7e:15:14:59:b3:66:4b:
         b4:f1:e5:a4:af:02:a3:32:e1:a6:36:8a:0c:e4:68:d0:a2:a6:
         27:34:9c:27:3b:09:1f:cd:04:ad:55:59:0a:fb:eb:6c:55:03:
         0a:cc:03:07
-----BEGIN CERTIFICATE-----
MIIDDDCCAfSgAwIBAgIBAzANBgkqhkiG9w0BAQUFADBKMQswCQYDVQQGEwJFUzEP
MA0GA1UECAwGTVVSQ0lBMQ8wDQYDVQQKDAZFVEhJTksxDDAKBgNVBAsMA1NUQTEL
MAkGA1UEAwwCY2EwHhcNMTMwNjExMDczODMyWhcNMTQwNjExMDczODMyWjBQMQsw
CQYDVQQGEwJFUzEPMA0GA1UECAwGTVVSQ0lBMQ8wDQYDVQQKDAZFVEhJTksxDDAK
BgNVBAsMA1NUQTERMA8GA1UEAwwIY2xpZW50ZTIwgZ8wDQYJKoZIhvcNAQEBBQAD
gY0AMIGJAoGBAMlVrEyqM92sHfcUHlbPJnIkRSbEMDTuFiR9tU56J9oka57vceQO
npMvB+J3rnbLGxTgAxRZwtRR79VsEPBw531z5ByntNTxZqjPfpyL7hkqXSp8Gi2W
el/bU9EuEWBmAavBZ20pfLzlKhUqdq4UU2iAhzRg1M3S3EHY6nD2/vZ9AgMBAAGj
ezB5MAkGA1UdEwQCMAAwLAYJYIZIAYb4QgENBB8WHU9wZW5TU0wgR2VuZXJhdGVk
IENlcnRpZmljYXRlMB0GA1UdDgQWBBRM/tZpiV/U/Zrf2FyG8Z35ls3WHzAfBgNV
HSMEGDAWgBTs/qhlZS4hLfLiKyYVPpzthonHjjANBgkqhkiG9w0BAQUFAAOCAQEA
nyFptlnZXqjcT7fFtcCA2mD1RfKR70qNOvImqdDfBXreUoHJudQ/HucIY8SuJaZ5
KKwxmwbFXwIlCz6pmWf3Ifd87EHItOHffGaXkk9Z7iYMySbvpiDxW63v/qP3+X09
zs+xBh9c7mgZr/vU0LXt2/KGzJdRmOm6Vclqa+Cns32LpvJHrqMTiI43RsGEGS8c
0omihPuB2cP1DHxtyy9+B0xM4ylA4V9CVNfERR375lAplAso/Emst3PfYtgalzBI
ESdE2daP0P3gZrc8tpOwM85+FRRZs2ZLtPHlpK8CozLhpjaKDORo0KKmJzScJzsJ
H80ErVVZCvvrbFUDCswDBw==
-----END CERTIFICATE-----
