Certificate:
    Data:
        Version: 3 (0x2)
        Serial Number: 1 (0x1)
    Signature Algorithm: sha1WithRSAEncryption
        Issuer: C=ES, ST=MURCIA, O=ETHINK, OU=STA, CN=ca
        Validity
            Not Before: Jun 11 07:37:48 2013 GMT
            Not After : Jun 11 07:37:48 2014 GMT
        Subject: C=ES, ST=MURCIA, O=ETHINK, OU=STA, CN=asterisk
        Subject Public Key Info:
            Public Key Algorithm: rsaEncryption
                Public-Key: (1024 bit)
                Modulus:
                    00:b6:be:bd:f3:b5:05:af:69:14:e8:bc:a0:b3:1b:
                    c5:20:ec:81:4a:13:14:0d:44:93:e9:e9:87:85:fc:
                    6b:7c:b0:23:40:a3:72:7f:be:b4:62:40:04:8d:9c:
                    da:36:91:0c:93:1b:0a:df:5c:99:3c:c6:ce:41:0d:
                    73:8a:a2:74:9a:6f:bf:53:61:79:5d:a9:66:96:57:
                    f5:aa:b5:6f:9d:c4:78:b3:70:41:3e:25:9a:82:be:
                    29:a5:49:d7:45:0a:0c:96:fa:32:fb:47:79:6a:fb:
                    3f:dd:55:0a:ea:6d:59:e2:a6:c5:a9:fd:c2:60:b4:
                    b6:c3:e7:29:93:48:9d:25:bf
                Exponent: 65537 (0x10001)
        X509v3 extensions:
            X509v3 Basic Constraints: 
                CA:FALSE
            Netscape Comment: 
                OpenSSL Generated Certificate
            X509v3 Subject Key Identifier: 
                39:9F:F4:69:1B:B5:AE:00:58:E0:AA:A9:74:F3:7A:78:4B:FF:35:C4
            X509v3 Authority Key Identifier: 
                keyid:EC:FE:A8:65:65:2E:21:2D:F2:E2:2B:26:15:3E:9C:ED:86:89:C7:8E

    Signature Algorithm: sha1WithRSAEncryption
         11:3a:dc:0e:54:d6:3d:00:72:eb:24:1f:47:42:a0:92:74:61:
         7e:20:8a:00:7e:fa:56:a5:16:3e:db:24:ae:55:cb:c2:c4:9d:
         3f:a2:67:d2:d6:55:42:06:aa:76:ed:ab:64:56:a7:ab:21:6c:
         74:a3:00:80:f6:94:4c:42:d9:e9:1c:bd:46:9d:55:fc:8c:8d:
         80:55:53:49:24:27:d2:8c:98:02:15:62:9e:07:42:02:df:cd:
         c9:1f:9c:d2:09:97:9a:29:13:91:51:ba:c2:58:8a:76:c3:17:
         79:6c:56:06:f2:19:67:c1:19:d6:37:ba:1e:81:25:d1:8f:20:
         d4:e3:8c:fc:c4:bc:49:4a:0f:80:a5:53:db:42:39:66:48:a3:
         73:af:f7:19:57:55:82:e2:12:de:78:fa:7b:f2:ac:af:c1:89:
         f6:57:73:56:24:ef:03:1a:c6:15:bd:0d:0d:fe:4d:25:79:28:
         f9:70:fb:28:9d:dc:74:8b:4e:c2:3d:4d:59:ff:c9:e3:a5:0a:
         de:b2:e4:12:0f:16:29:b0:a2:6d:e9:52:c8:68:15:ea:28:9e:
         6e:05:a8:15:81:82:d2:09:98:02:4f:57:3e:a3:28:03:b9:a1:
         8f:a9:b1:f7:c2:0b:32:92:a2:7a:09:76:09:de:15:0e:0f:11:
         52:c0:d4:61
-----BEGIN CERTIFICATE-----
MIIDDDCCAfSgAwIBAgIBATANBgkqhkiG9w0BAQUFADBKMQswCQYDVQQGEwJFUzEP
MA0GA1UECAwGTVVSQ0lBMQ8wDQYDVQQKDAZFVEhJTksxDDAKBgNVBAsMA1NUQTEL
MAkGA1UEAwwCY2EwHhcNMTMwNjExMDczNzQ4WhcNMTQwNjExMDczNzQ4WjBQMQsw
CQYDVQQGEwJFUzEPMA0GA1UECAwGTVVSQ0lBMQ8wDQYDVQQKDAZFVEhJTksxDDAK
BgNVBAsMA1NUQTERMA8GA1UEAwwIYXN0ZXJpc2swgZ8wDQYJKoZIhvcNAQEBBQAD
gY0AMIGJAoGBALa+vfO1Ba9pFOi8oLMbxSDsgUoTFA1Ek+nph4X8a3ywI0Cjcn++
tGJABI2c2jaRDJMbCt9cmTzGzkENc4qidJpvv1NheV2pZpZX9aq1b53EeLNwQT4l
moK+KaVJ10UKDJb6MvtHeWr7P91VCuptWeKmxan9wmC0tsPnKZNInSW/AgMBAAGj
ezB5MAkGA1UdEwQCMAAwLAYJYIZIAYb4QgENBB8WHU9wZW5TU0wgR2VuZXJhdGVk
IENlcnRpZmljYXRlMB0GA1UdDgQWBBQ5n/RpG7WuAFjgqql083p4S/81xDAfBgNV
HSMEGDAWgBTs/qhlZS4hLfLiKyYVPpzthonHjjANBgkqhkiG9w0BAQUFAAOCAQEA
ETrcDlTWPQBy6yQfR0KgknRhfiCKAH76VqUWPtskrlXLwsSdP6Jn0tZVQgaqdu2r
ZFanqyFsdKMAgPaUTELZ6Ry9Rp1V/IyNgFVTSSQn0oyYAhVingdCAt/NyR+c0gmX
mikTkVG6wliKdsMXeWxWBvIZZ8EZ1je6HoEl0Y8g1OOM/MS8SUoPgKVT20I5Zkij
c6/3GVdVguIS3nj6e/Ksr8GJ9ldzViTvAxrGFb0NDf5NJXko+XD7KJ3cdItOwj1N
Wf/J46UK3rLkEg8WKbCibelSyGgV6iiebgWoFYGC0gmYAk9XPqMoA7mhj6mx98IL
MpKiegl2Cd4VDg8RUsDUYQ==
-----END CERTIFICATE-----
