Certificate:
    Data:
        Version: 3 (0x2)
        Serial Number: 2 (0x2)
    Signature Algorithm: sha1WithRSAEncryption
        Issuer: C=ES, ST=MURCIA, O=ETHINK, OU=STA, CN=ca
        Validity
            Not Before: Jun 11 07:38:01 2013 GMT
            Not After : Jun 11 07:38:01 2014 GMT
        Subject: C=ES, ST=MURCIA, O=ETHINK, OU=STA, CN=cliente1
        Subject Public Key Info:
            Public Key Algorithm: rsaEncryption
                Public-Key: (1024 bit)
                Modulus:
                    00:cf:bb:71:65:d9:3e:ca:02:f3:e1:86:13:e8:4b:
                    aa:7c:e4:0d:99:eb:25:3d:18:0f:c8:c9:18:e7:c8:
                    f8:0e:d1:03:52:74:4e:1d:64:c5:09:aa:8b:5b:8d:
                    f2:51:49:ae:2c:83:99:b6:13:35:d5:3d:6d:27:19:
                    b3:c9:62:10:66:76:4f:40:b9:33:19:cd:78:a3:38:
                    b5:f9:a3:e3:be:ef:e0:f5:e1:a9:36:a6:11:ac:26:
                    a4:95:84:35:e2:23:98:7f:6b:a0:e0:f5:cf:8f:b7:
                    5c:52:bf:25:77:c5:4a:52:9b:c8:aa:0a:8c:ca:47:
                    a5:ca:de:2a:ab:ee:1d:c0:0f
                Exponent: 65537 (0x10001)
        X509v3 extensions:
            X509v3 Basic Constraints: 
                CA:FALSE
            Netscape Comment: 
                OpenSSL Generated Certificate
            X509v3 Subject Key Identifier: 
                78:D8:33:60:0A:6D:0A:E6:90:C0:57:CC:64:77:AE:31:76:DE:CB:E4
            X509v3 Authority Key Identifier: 
                keyid:EC:FE:A8:65:65:2E:21:2D:F2:E2:2B:26:15:3E:9C:ED:86:89:C7:8E

    Signature Algorithm: sha1WithRSAEncryption
         40:d2:8f:30:0b:f1:da:bc:ad:97:fd:82:ff:2f:10:f3:c0:d2:
         98:34:c5:36:f0:07:d1:90:ff:b8:7a:6f:29:59:3a:1b:1b:5d:
         92:cb:bc:15:47:22:12:1a:66:af:a3:ca:8e:85:e4:20:66:9b:
         c7:6d:9a:e8:af:5b:11:c0:69:d0:13:a7:24:3f:c5:51:36:f6:
         0d:bf:60:6d:8b:e2:3c:4c:9f:c4:c8:f4:d8:14:fe:84:35:60:
         75:b7:5e:5e:5d:ba:8c:4a:d7:35:56:a5:96:2e:b6:05:6a:42:
         8f:22:cb:bd:aa:ce:96:e6:b4:2a:3b:c9:0c:15:ea:da:58:db:
         62:04:30:e9:49:ae:c3:0a:ce:71:61:0c:ad:0e:c4:48:f8:f8:
         f0:2d:df:fd:dd:e2:5b:72:22:02:2d:b4:0f:f8:04:b5:5e:b1:
         43:8b:8b:09:e7:d2:d6:c7:ab:c3:fd:ee:7c:7b:e9:6d:e5:0c:
         42:b4:61:4d:0c:4d:8d:08:4c:d5:12:3d:11:9e:82:dd:56:f8:
         c4:f0:7f:14:fc:19:89:c1:5b:cd:a1:4d:c1:2c:48:db:a9:92:
         39:2a:67:92:69:3e:0d:9d:39:a0:ea:b4:a3:68:b2:0d:39:e5:
         46:66:80:a0:0b:70:48:52:05:5e:7d:14:65:bf:c7:ff:c8:bc:
         35:bc:9a:43
-----BEGIN CERTIFICATE-----
MIIDDDCCAfSgAwIBAgIBAjANBgkqhkiG9w0BAQUFADBKMQswCQYDVQQGEwJFUzEP
MA0GA1UECAwGTVVSQ0lBMQ8wDQYDVQQKDAZFVEhJTksxDDAKBgNVBAsMA1NUQTEL
MAkGA1UEAwwCY2EwHhcNMTMwNjExMDczODAxWhcNMTQwNjExMDczODAxWjBQMQsw
CQYDVQQGEwJFUzEPMA0GA1UECAwGTVVSQ0lBMQ8wDQYDVQQKDAZFVEhJTksxDDAK
BgNVBAsMA1NUQTERMA8GA1UEAwwIY2xpZW50ZTEwgZ8wDQYJKoZIhvcNAQEBBQAD
gY0AMIGJAoGBAM+7cWXZPsoC8+GGE+hLqnzkDZnrJT0YD8jJGOfI+A7RA1J0Th1k
xQmqi1uN8lFJriyDmbYTNdU9bScZs8liEGZ2T0C5MxnNeKM4tfmj477v4PXhqTam
EawmpJWENeIjmH9roOD1z4+3XFK/JXfFSlKbyKoKjMpHpcreKqvuHcAPAgMBAAGj
ezB5MAkGA1UdEwQCMAAwLAYJYIZIAYb4QgENBB8WHU9wZW5TU0wgR2VuZXJhdGVk
IENlcnRpZmljYXRlMB0GA1UdDgQWBBR42DNgCm0K5pDAV8xkd64xdt7L5DAfBgNV
HSMEGDAWgBTs/qhlZS4hLfLiKyYVPpzthonHjjANBgkqhkiG9w0BAQUFAAOCAQEA
QNKPMAvx2rytl/2C/y8Q88DSmDTFNvAH0ZD/uHpvKVk6Gxtdksu8FUciEhpmr6PK
joXkIGabx22a6K9bEcBp0BOnJD/FUTb2Db9gbYviPEyfxMj02BT+hDVgdbdeXl26
jErXNValli62BWpCjyLLvarOlua0KjvJDBXq2ljbYgQw6UmuwwrOcWEMrQ7ESPj4
8C3f/d3iW3IiAi20D/gEtV6xQ4uLCefS1serw/3ufHvpbeUMQrRhTQxNjQhM1RI9
EZ6C3Vb4xPB/FPwZicFbzaFNwSxI26mSOSpnkmk+DZ05oOq0o2iyDTnlRmaAoAtw
SFIFXn0UZb/H/8i8NbyaQw==
-----END CERTIFICATE-----
