Certificate:
    Data:
        Version: 3 (0x2)
        Serial Number: 1 (0x1)
    Signature Algorithm: sha1WithRSAEncryption
        Issuer: C=ES, ST=Murcia, L=Murcia, O=UM, OU=STA, CN=antonio-ca/emailAddress=antonio.vidal2@um.es
        Validity
            Not Before: Nov 12 16:22:04 2012 GMT
            Not After : Nov 12 16:22:04 2013 GMT
        Subject: C=ES, ST=Murcia, O=UM, OU=STA, CN=agenteSNMP
        Subject Public Key Info:
            Public Key Algorithm: rsaEncryption
                Public-Key: (1024 bit)
                Modulus:
                    00:c4:9c:94:4d:0a:11:8b:33:e7:e7:50:80:e5:a8:
                    38:5d:39:35:72:a4:cb:33:17:b3:c3:9c:86:12:7a:
                    22:a9:d0:bb:a6:db:2d:af:49:a1:25:5f:5a:7a:e9:
                    ca:33:9e:83:78:f7:6f:91:7f:31:bc:cf:2b:30:36:
                    29:be:91:0a:80:58:d7:0d:69:77:e3:b5:89:38:95:
                    ce:f1:fc:70:db:c6:5f:33:e3:96:8f:f4:8f:f6:5f:
                    6e:cc:f9:94:45:0b:f3:ba:63:1b:c1:19:f6:91:cf:
                    95:31:34:9d:76:98:6e:3c:bb:ca:12:ef:55:dc:5b:
                    f0:53:31:d8:07:e8:bb:b9:63
                Exponent: 65537 (0x10001)
        X509v3 extensions:
            X509v3 Basic Constraints: 
                CA:FALSE
            Netscape Comment: 
                OpenSSL Generated Certificate
            X509v3 Subject Key Identifier: 
                BC:CE:71:29:BD:DD:ED:C7:15:00:BE:56:E1:DB:30:58:9C:EB:E5:D4
            X509v3 Authority Key Identifier: 
                keyid:55:33:DE:C8:C8:90:75:23:F5:93:10:77:FE:82:FB:FD:A5:CC:4A:EE

    Signature Algorithm: sha1WithRSAEncryption
         a5:1d:8f:e3:66:6d:0a:9e:bc:f5:33:d5:ad:9a:d0:20:9e:ae:
         0a:ae:e5:6c:5e:d4:6e:db:54:70:80:4e:4b:36:5e:b7:88:6a:
         c0:b3:c0:8a:cd:93:9b:28:5d:1a:33:34:f1:3b:5c:e8:3c:3a:
         a8:5d:7f:d6:a2:a1:f6:bd:fd:32:89:fc:c1:9f:98:25:fe:6c:
         68:a4:1d:17:73:f1:2a:ea:7a:c4:ea:85:66:63:9d:6d:c2:8b:
         7d:12:a4:b2:0c:c5:0c:16:0c:c2:00:be:85:cb:1b:a6:e1:0c:
         73:4f:74:a4:4f:56:87:50:e4:0b:6a:c8:22:de:b3:f7:fb:28:
         a9:06
-----BEGIN CERTIFICATE-----
MIICxDCCAi2gAwIBAgIBATANBgkqhkiG9w0BAQUFADCBhDELMAkGA1UEBhMCRVMx
DzANBgNVBAgMBk11cmNpYTEPMA0GA1UEBwwGTXVyY2lhMQswCQYDVQQKDAJVTTEM
MAoGA1UECwwDU1RBMRMwEQYDVQQDDAphbnRvbmlvLWNhMSMwIQYJKoZIhvcNAQkB
FhRhbnRvbmlvLnZpZGFsMkB1bS5lczAeFw0xMjExMTIxNjIyMDRaFw0xMzExMTIx
NjIyMDRaME4xCzAJBgNVBAYTAkVTMQ8wDQYDVQQIDAZNdXJjaWExCzAJBgNVBAoM
AlVNMQwwCgYDVQQLDANTVEExEzARBgNVBAMMCmFnZW50ZVNOTVAwgZ8wDQYJKoZI
hvcNAQEBBQADgY0AMIGJAoGBAMSclE0KEYsz5+dQgOWoOF05NXKkyzMXs8OchhJ6
IqnQu6bbLa9JoSVfWnrpyjOeg3j3b5F/MbzPKzA2Kb6RCoBY1w1pd+O1iTiVzvH8
cNvGXzPjlo/0j/Zfbsz5lEUL87pjG8EZ9pHPlTE0nXaYbjy7yhLvVdxb8FMx2Afo
u7ljAgMBAAGjezB5MAkGA1UdEwQCMAAwLAYJYIZIAYb4QgENBB8WHU9wZW5TU0wg
R2VuZXJhdGVkIENlcnRpZmljYXRlMB0GA1UdDgQWBBS8znEpvd3txxUAvlbh2zBY
nOvl1DAfBgNVHSMEGDAWgBRVM97IyJB1I/WTEHf+gvv9pcxK7jANBgkqhkiG9w0B
AQUFAAOBgQClHY/jZm0Knrz1M9WtmtAgnq4KruVsXtRu21RwgE5LNl63iGrAs8CK
zZObKF0aMzTxO1zoPDqoXX/WoqH2vf0yifzBn5gl/mxopB0Xc/Eq6nrE6oVmY51t
wot9EqSyDMUMFgzCAL6Fyxum4QxzT3SkT1aHUOQLasgi3rP3+yipBg==
-----END CERTIFICATE-----
