Certificate:
    Data:
        Version: 3 (0x2)
        Serial Number: 2 (0x2)
    Signature Algorithm: sha1WithRSAEncryption
        Issuer: C=ES, ST=Murcia, L=Murcia, O=UM, OU=STA, CN=antonio-ca/emailAddress=antonio.vidal2@um.es
        Validity
            Not Before: Nov 19 16:34:41 2012 GMT
            Not After : Nov 19 16:34:41 2013 GMT
        Subject: C=ES, ST=Murcia, O=UM, OU=STA, CN=155.54.225.20/emailAddress=antonio.vidla@uemsd.
        Subject Public Key Info:
            Public Key Algorithm: rsaEncryption
                Public-Key: (1204 bit)
                Modulus:
                    0a:12:90:f3:6f:47:70:65:ce:74:d5:ef:26:8e:1f:
                    25:b6:89:1c:70:67:d3:68:0f:a0:80:bd:1f:04:14:
                    5a:66:5d:2d:bb:4f:ab:02:46:88:db:4c:ea:99:cb:
                    24:cc:e6:90:c8:5e:c6:29:2e:56:3c:42:41:54:91:
                    59:09:fc:d6:91:f8:30:a1:ef:ae:87:d8:07:85:6a:
                    5c:e6:27:62:b2:2f:70:65:6c:35:0b:e6:d8:c9:84:
                    01:3d:f1:37:11:0c:29:8b:3c:70:d6:c3:47:3c:0d:
                    1f:6c:43:83:f6:f0:9a:21:b1:91:25:79:6f:2b:a8:
                    06:b0:1c:b6:34:08:83:27:7f:1f:a4:55:9c:e1:95:
                    3b:1c:39:b7:25:e2:b0:63:07:fd:12:39:d8:76:22:
                    f1
                Exponent: 65537 (0x10001)
        X509v3 extensions:
            X509v3 Basic Constraints: 
                CA:FALSE
            Netscape Comment: 
                OpenSSL Generated Certificate
            X509v3 Subject Key Identifier: 
                40:C6:2A:78:27:06:F9:39:05:65:A9:B3:96:E5:26:CC:47:47:F8:43
            X509v3 Authority Key Identifier: 
                keyid:55:33:DE:C8:C8:90:75:23:F5:93:10:77:FE:82:FB:FD:A5:CC:4A:EE

    Signature Algorithm: sha1WithRSAEncryption
         6c:95:b3:69:3d:c3:11:02:37:62:1b:3a:d1:7e:16:17:bf:b6:
         58:33:ed:75:19:84:d6:d4:43:df:d4:00:0f:95:a2:d1:2b:08:
         e0:a3:5e:90:aa:e0:20:d4:dd:97:6b:aa:70:c4:bf:35:a5:96:
         3d:91:cc:cd:7e:b4:b4:5f:61:f5:a9:63:b3:65:94:29:56:b5:
         ea:48:a6:12:cc:0a:38:96:31:7a:6f:9f:04:2f:88:2e:f0:f1:
         80:9f:f1:92:b2:ca:f4:e4:7f:54:ac:c5:71:90:a9:8b:78:98:
         87:5b:ab:ac:f9:a6:7d:8c:66:2b:5e:9a:81:b7:94:99:39:79:
         c3:9e
-----BEGIN CERTIFICATE-----
MIIDAjCCAmugAwIBAgIBAjANBgkqhkiG9w0BAQUFADCBhDELMAkGA1UEBhMCRVMx
DzANBgNVBAgMBk11cmNpYTEPMA0GA1UEBwwGTXVyY2lhMQswCQYDVQQKDAJVTTEM
MAoGA1UECwwDU1RBMRMwEQYDVQQDDAphbnRvbmlvLWNhMSMwIQYJKoZIhvcNAQkB
FhRhbnRvbmlvLnZpZGFsMkB1bS5lczAeFw0xMjExMTkxNjM0NDFaFw0xMzExMTkx
NjM0NDFaMHYxCzAJBgNVBAYTAkVTMQ8wDQYDVQQIDAZNdXJjaWExCzAJBgNVBAoM
AlVNMQwwCgYDVQQLDANTVEExFjAUBgNVBAMMDTE1NS41NC4yMjUuMjAxIzAhBgkq
hkiG9w0BCQEWFGFudG9uaW8udmlkbGFAdWVtc2QuMIG1MA0GCSqGSIb3DQEBAQUA
A4GjADCBnwKBlwoSkPNvR3BlznTV7yaOHyW2iRxwZ9NoD6CAvR8EFFpmXS27T6sC
RojbTOqZyyTM5pDIXsYpLlY8QkFUkVkJ/NaR+DCh766H2AeFalzmJ2KyL3BlbDUL
5tjJhAE98TcRDCmLPHDWw0c8DR9sQ4P28JohsZEleW8rqAawHLY0CIMnfx+kVZzh
lTscObcl4rBjB/0SOdh2IvECAwEAAaN7MHkwCQYDVR0TBAIwADAsBglghkgBhvhC
AQ0EHxYdT3BlblNTTCBHZW5lcmF0ZWQgQ2VydGlmaWNhdGUwHQYDVR0OBBYEFEDG
KngnBvk5BWWps5blJsxHR/hDMB8GA1UdIwQYMBaAFFUz3sjIkHUj9ZMQd/6C+/2l
zEruMA0GCSqGSIb3DQEBBQUAA4GBAGyVs2k9wxECN2IbOtF+Fhe/tlgz7XUZhNbU
Q9/UAA+VotErCOCjXpCq4CDU3ZdrqnDEvzWllj2RzM1+tLRfYfWpY7NllClWtepI
phLMCjiWMXpvnwQviC7w8YCf8ZKyyvTkf1SsxXGQqYt4mIdbq6z5pn2MZitemoG3
lJk5ecOe
-----END CERTIFICATE-----
