Certificate:
    Data:
        Version: 3 (0x2)
        Serial Number: 3 (0x3)
    Signature Algorithm: sha1WithRSAEncryption
        Issuer: C=ES, ST=Murcia, L=Murcia, O=UM, OU=STA, CN=antonio-ca/emailAddress=antonio.vidal2@um.es
        Validity
            Not Before: Nov 19 16:35:31 2012 GMT
            Not After : Nov 19 16:35:31 2013 GMT
        Subject: C=ES, ST=Murcia, O=UM, OU=STA, CN=155.54.225.19/emailAddress=adsd@us.es
        Subject Public Key Info:
            Public Key Algorithm: rsaEncryption
                Public-Key: (1204 bit)
                Modulus:
                    0c:8f:d7:82:2a:0c:b3:03:04:6e:4c:01:21:8d:f4:
                    60:ca:85:94:b7:af:64:5a:71:6a:ca:65:33:b5:f9:
                    e1:fd:cb:b7:2a:ac:70:d5:16:a2:33:f8:eb:55:93:
                    20:1a:54:4c:e4:af:f5:ea:bf:51:c0:af:4c:06:19:
                    b1:72:76:cf:a4:72:96:1a:54:e2:f4:47:a4:a7:4a:
                    e9:15:90:d7:be:f6:b4:73:a1:1f:83:5d:a3:94:8d:
                    cb:e4:ae:1c:9e:a3:95:95:24:47:0e:29:32:83:4d:
                    21:f7:8e:33:82:09:01:1b:b1:31:11:a3:4d:da:e6:
                    6a:cc:6e:0c:23:8a:17:ab:4c:b1:38:d3:ee:53:55:
                    61:72:e6:e6:19:ae:ca:20:76:ae:7c:c3:d6:00:e0:
                    bb
                Exponent: 65537 (0x10001)
        X509v3 extensions:
            X509v3 Basic Constraints: 
                CA:FALSE
            Netscape Comment: 
                OpenSSL Generated Certificate
            X509v3 Subject Key Identifier: 
                D9:05:06:84:0B:98:54:32:F3:A8:4C:23:57:A2:B0:A6:11:C8:61:D0
            X509v3 Authority Key Identifier: 
                keyid:55:33:DE:C8:C8:90:75:23:F5:93:10:77:FE:82:FB:FD:A5:CC:4A:EE

    Signature Algorithm: sha1WithRSAEncryption
         a1:aa:6c:6b:d6:99:26:17:6e:05:fb:47:68:4d:2e:bb:e4:df:
         de:6c:35:18:4a:48:c2:74:7d:84:f0:84:02:c1:1e:9e:fd:57:
         3e:f2:0a:3a:be:d2:30:32:ff:b6:96:cb:a4:5b:1b:77:cc:e4:
         62:a0:73:59:0a:fc:45:81:a0:97:74:26:6b:cb:63:36:f4:60:
         4b:1b:d0:08:ae:f9:c9:2e:af:eb:ac:43:fe:7f:88:16:91:75:
         38:aa:7c:eb:61:8f:74:f3:af:24:f0:0e:06:fe:df:69:a2:da:
         20:90:c8:f7:c5:ed:eb:c5:fe:89:a9:16:09:86:11:24:f3:dc:
         ec:b1
-----BEGIN CERTIFICATE-----
MIIC+DCCAmGgAwIBAgIBAzANBgkqhkiG9w0BAQUFADCBhDELMAkGA1UEBhMCRVMx
DzANBgNVBAgMBk11cmNpYTEPMA0GA1UEBwwGTXVyY2lhMQswCQYDVQQKDAJVTTEM
MAoGA1UECwwDU1RBMRMwEQYDVQQDDAphbnRvbmlvLWNhMSMwIQYJKoZIhvcNAQkB
FhRhbnRvbmlvLnZpZGFsMkB1bS5lczAeFw0xMjExMTkxNjM1MzFaFw0xMzExMTkx
NjM1MzFaMGwxCzAJBgNVBAYTAkVTMQ8wDQYDVQQIDAZNdXJjaWExCzAJBgNVBAoM
AlVNMQwwCgYDVQQLDANTVEExFjAUBgNVBAMMDTE1NS41NC4yMjUuMTkxGTAXBgkq
hkiG9w0BCQEWCmFkc2RAdXMuZXMwgbUwDQYJKoZIhvcNAQEBBQADgaMAMIGfAoGX
DI/XgioMswMEbkwBIY30YMqFlLevZFpxasplM7X54f3LtyqscNUWojP461WTIBpU
TOSv9eq/UcCvTAYZsXJ2z6RylhpU4vRHpKdK6RWQ1772tHOhH4Ndo5SNy+SuHJ6j
lZUkRw4pMoNNIfeOM4IJARuxMRGjTdrmasxuDCOKF6tMsTjT7lNVYXLm5hmuyiB2
rnzD1gDguwIDAQABo3sweTAJBgNVHRMEAjAAMCwGCWCGSAGG+EIBDQQfFh1PcGVu
U1NMIEdlbmVyYXRlZCBDZXJ0aWZpY2F0ZTAdBgNVHQ4EFgQU2QUGhAuYVDLzqEwj
V6KwphHIYdAwHwYDVR0jBBgwFoAUVTPeyMiQdSP1kxB3/oL7/aXMSu4wDQYJKoZI
hvcNAQEFBQADgYEAoapsa9aZJhduBftHaE0uu+Tf3mw1GEpIwnR9hPCEAsEenv1X
PvIKOr7SMDL/tpbLpFsbd8zkYqBzWQr8RYGgl3Qma8tjNvRgSxvQCK75yS6v66xD
/n+IFpF1OKp862GPdPOvJPAOBv7faaLaIJDI98Xt68X+iakWCYYRJPPc7LE=
-----END CERTIFICATE-----
