Certificate:
    Data:
        Version: 3 (0x2)
        Serial Number: 4 (0x4)
    Signature Algorithm: sha1WithRSAEncryption
        Issuer: C=ES, ST=Murcia, L=Murcia, O=UM, OU=STA, CN=antonio-ca/emailAddress=antonio.vidal2@um.es
        Validity
            Not Before: Jan 11 13:07:30 2013 GMT
            Not After : Jan 11 13:07:30 2014 GMT
        Subject: C=ES, ST=Murcia, O=UM, OU=STA, CN=ipAsterisk/emailAddress=antonio.vidal
        Subject Public Key Info:
            Public Key Algorithm: rsaEncryption
                Public-Key: (1024 bit)
                Modulus:
                    00:c2:07:d8:57:7c:12:25:fa:2d:11:3c:f2:03:7f:
                    8f:55:5a:23:04:57:f4:82:64:40:38:bf:a6:76:98:
                    ee:de:fc:1e:5f:75:08:78:56:8d:67:3a:33:26:fc:
                    b8:90:98:07:99:4d:65:f3:2d:2a:07:bb:3a:90:b6:
                    21:8f:00:e7:eb:56:71:61:e7:3f:50:5f:c0:5f:a4:
                    14:59:3d:14:0b:3d:64:70:2e:2c:0a:bc:bf:14:fc:
                    96:d2:b7:06:36:80:82:64:3b:78:ef:18:4d:18:cb:
                    d8:c6:52:8f:92:22:99:5f:7c:b7:1d:1b:e6:63:32:
                    19:1f:1e:80:56:c7:56:be:cb
                Exponent: 65537 (0x10001)
        X509v3 extensions:
            X509v3 Basic Constraints: 
                CA:FALSE
            Netscape Comment: 
                OpenSSL Generated Certificate
            X509v3 Subject Key Identifier: 
                D2:CF:0B:71:60:2A:B2:AE:BD:31:3B:C7:5E:83:34:2F:F9:6F:E7:52
            X509v3 Authority Key Identifier: 
                keyid:55:33:DE:C8:C8:90:75:23:F5:93:10:77:FE:82:FB:FD:A5:CC:4A:EE

    Signature Algorithm: sha1WithRSAEncryption
         0b:82:03:6e:7e:53:eb:76:23:73:e3:98:00:5a:f9:30:bd:c0:
         7f:b3:2b:a7:f4:5e:74:7d:3a:01:1d:93:25:e7:c0:2a:4c:0b:
         ae:62:49:7c:9b:7d:88:e1:99:81:75:e6:83:2c:d1:93:49:29:
         99:de:37:91:51:90:75:7f:75:2d:ec:dc:7f:84:2f:cc:47:e7:
         ec:ea:37:6c:48:85:a9:81:43:60:31:27:e1:d8:85:a5:f8:1e:
         bb:7b:a8:90:d0:0a:db:04:e5:30:35:4c:d1:cb:6c:fd:51:e5:
         20:72:4f:a4:5d:4e:96:89:5d:f5:e5:56:a4:e0:58:d5:56:be:
         53:b7
-----BEGIN CERTIFICATE-----
MIIC4jCCAkugAwIBAgIBBDANBgkqhkiG9w0BAQUFADCBhDELMAkGA1UEBhMCRVMx
DzANBgNVBAgMBk11cmNpYTEPMA0GA1UEBwwGTXVyY2lhMQswCQYDVQQKDAJVTTEM
MAoGA1UECwwDU1RBMRMwEQYDVQQDDAphbnRvbmlvLWNhMSMwIQYJKoZIhvcNAQkB
FhRhbnRvbmlvLnZpZGFsMkB1bS5lczAeFw0xMzAxMTExMzA3MzBaFw0xNDAxMTEx
MzA3MzBaMGwxCzAJBgNVBAYTAkVTMQ8wDQYDVQQIDAZNdXJjaWExCzAJBgNVBAoM
AlVNMQwwCgYDVQQLDANTVEExEzARBgNVBAMMCmlwQXN0ZXJpc2sxHDAaBgkqhkiG
9w0BCQEWDWFudG9uaW8udmlkYWwwgZ8wDQYJKoZIhvcNAQEBBQADgY0AMIGJAoGB
AMIH2Fd8EiX6LRE88gN/j1VaIwRX9IJkQDi/pnaY7t78Hl91CHhWjWc6Myb8uJCY
B5lNZfMtKge7OpC2IY8A5+tWcWHnP1BfwF+kFFk9FAs9ZHAuLAq8vxT8ltK3BjaA
gmQ7eO8YTRjL2MZSj5IimV98tx0b5mMyGR8egFbHVr7LAgMBAAGjezB5MAkGA1Ud
EwQCMAAwLAYJYIZIAYb4QgENBB8WHU9wZW5TU0wgR2VuZXJhdGVkIENlcnRpZmlj
YXRlMB0GA1UdDgQWBBTSzwtxYCqyrr0xO8degzQv+W/nUjAfBgNVHSMEGDAWgBRV
M97IyJB1I/WTEHf+gvv9pcxK7jANBgkqhkiG9w0BAQUFAAOBgQALggNuflPrdiNz
45gAWvkwvcB/syun9F50fToBHZMl58AqTAuuYkl8m32I4ZmBdeaDLNGTSSmZ3jeR
UZB1f3Ut7Nx/hC/MR+fs6jdsSIWpgUNgMSfh2IWl+B67e6iQ0ArbBOUwNUzRy2z9
UeUgck+kXU6WiV315Vak4FjVVr5Ttw==
-----END CERTIFICATE-----
