Certificate:
    Data:
        Version: 3 (0x2)
        Serial Number: 5 (0x5)
    Signature Algorithm: sha1WithRSAEncryption
        Issuer: C=ES, ST=Murcia, L=Murcia, O=UM, OU=STA, CN=antonio-ca/emailAddress=antonio.vidal2@um.es
        Validity
            Not Before: Jan 11 14:22:28 2013 GMT
            Not After : Jan 11 14:22:28 2014 GMT
        Subject: C=ES, ST=Murcia, O=UM, CN=Agente SNMP
        Subject Public Key Info:
            Public Key Algorithm: rsaEncryption
                Public-Key: (1024 bit)
                Modulus:
                    00:ac:14:98:c2:5a:4a:6b:86:e2:2f:f0:37:fa:47:
                    4a:06:b6:dc:a9:e4:47:78:36:9c:75:91:23:23:91:
                    9b:da:b2:a8:47:95:31:15:46:c8:10:69:f5:46:26:
                    4d:e7:f4:90:9a:db:83:2c:c6:48:1f:c5:9e:b5:aa:
                    72:ed:27:a5:21:8f:eb:53:9a:a7:0c:8c:db:9d:38:
                    b3:28:ef:70:a3:91:41:b6:7c:54:c7:60:3f:33:1b:
                    86:cb:02:ba:e3:8d:07:3e:08:25:e4:0f:3b:f2:c0:
                    62:71:9c:35:eb:e8:9b:ef:fb:c2:65:59:80:86:e2:
                    2e:de:1e:c1:5e:80:27:65:9b
                Exponent: 65537 (0x10001)
        X509v3 extensions:
            X509v3 Basic Constraints: 
                CA:FALSE
            Netscape Comment: 
                OpenSSL Generated Certificate
            X509v3 Subject Key Identifier: 
                36:D4:04:91:68:7C:FB:D7:5B:79:CD:5B:44:9F:81:3F:27:5E:16:00
            X509v3 Authority Key Identifier: 
                keyid:55:33:DE:C8:C8:90:75:23:F5:93:10:77:FE:82:FB:FD:A5:CC:4A:EE

    Signature Algorithm: sha1WithRSAEncryption
         16:98:ac:7e:40:ba:75:20:12:f8:b0:20:63:34:6c:9b:de:fb:
         70:a1:55:46:f1:25:78:15:19:64:fa:72:98:04:a4:36:01:c1:
         73:cb:84:4e:0b:c7:1b:85:53:93:74:3d:46:2c:f6:ae:93:d2:
         b5:de:0b:f0:d0:46:be:fd:6c:94:5b:2e:63:a2:37:ae:ae:c6:
         6f:a8:ea:a4:30:f1:ff:18:8c:3e:fd:87:7e:d1:f8:06:28:2e:
         9b:b3:28:90:7c:5c:ba:ce:32:62:38:1f:16:d7:6c:88:39:9e:
         fa:cc:f2:21:d4:01:7e:e9:f7:5a:fa:9e:f1:33:f8:7c:6d:89:
         e9:8b
-----BEGIN CERTIFICATE-----
MIICtzCCAiCgAwIBAgIBBTANBgkqhkiG9w0BAQUFADCBhDELMAkGA1UEBhMCRVMx
DzANBgNVBAgMBk11cmNpYTEPMA0GA1UEBwwGTXVyY2lhMQswCQYDVQQKDAJVTTEM
MAoGA1UECwwDU1RBMRMwEQYDVQQDDAphbnRvbmlvLWNhMSMwIQYJKoZIhvcNAQkB
FhRhbnRvbmlvLnZpZGFsMkB1bS5lczAeFw0xMzAxMTExNDIyMjhaFw0xNDAxMTEx
NDIyMjhaMEExCzAJBgNVBAYTAkVTMQ8wDQYDVQQIDAZNdXJjaWExCzAJBgNVBAoM
AlVNMRQwEgYDVQQDDAtBZ2VudGUgU05NUDCBnzANBgkqhkiG9w0BAQEFAAOBjQAw
gYkCgYEArBSYwlpKa4biL/A3+kdKBrbcqeRHeDacdZEjI5Gb2rKoR5UxFUbIEGn1
RiZN5/SQmtuDLMZIH8Wetapy7SelIY/rU5qnDIzbnTizKO9wo5FBtnxUx2A/MxuG
ywK6440HPggl5A878sBicZw16+ib7/vCZVmAhuIu3h7BXoAnZZsCAwEAAaN7MHkw
CQYDVR0TBAIwADAsBglghkgBhvhCAQ0EHxYdT3BlblNTTCBHZW5lcmF0ZWQgQ2Vy
dGlmaWNhdGUwHQYDVR0OBBYEFDbUBJFofPvXW3nNW0SfgT8nXhYAMB8GA1UdIwQY
MBaAFFUz3sjIkHUj9ZMQd/6C+/2lzEruMA0GCSqGSIb3DQEBBQUAA4GBABaYrH5A
unUgEviwIGM0bJve+3ChVUbxJXgVGWT6cpgEpDYBwXPLhE4LxxuFU5N0PUYs9q6T
0rXeC/DQRr79bJRbLmOiN66uxm+o6qQw8f8YjD79h37R+AYoLpuzKJB8XLrOMmI4
HxbXbIg5nvrM8iHUAX7p91r6nvEz+HxtiemL
-----END CERTIFICATE-----
