Certificate:
    Data:
        Version: 3 (0x2)
        Serial Number: 7 (0x7)
    Signature Algorithm: sha1WithRSAEncryption
        Issuer: C=ES, ST=Murcia, L=Murcia, O=UM, OU=STA, CN=antonio-ca/emailAddress=antonio.vidal2@um.es
        Validity
            Not Before: Jan 11 16:39:04 2013 GMT
            Not After : Jan 11 16:39:04 2014 GMT
        Subject: C=ES, ST=Murcia, O=UM, CN=asterisk.com
        Subject Public Key Info:
            Public Key Algorithm: rsaEncryption
                Public-Key: (1024 bit)
                Modulus:
                    00:9d:3f:0d:45:db:84:e7:89:92:52:f7:36:bf:ec:
                    73:05:42:17:88:b0:40:3d:9e:ee:77:b9:1e:87:a7:
                    a7:2a:5a:c7:39:8e:65:a5:4e:a8:ec:4a:4b:84:db:
                    34:a0:b6:1e:a9:ca:f6:fa:4c:0d:63:3d:ca:c8:25:
                    32:1e:99:3d:be:9e:73:bb:84:08:cf:b4:6c:db:3d:
                    c8:00:0e:02:66:88:d1:60:f1:8f:ab:d4:a5:73:f1:
                    b8:02:ad:cc:83:2a:09:ec:a7:0a:05:da:b9:4d:42:
                    fd:65:aa:bf:11:fb:52:a2:d0:69:2a:02:9b:55:60:
                    d7:58:e7:de:c7:2e:51:ee:2b
                Exponent: 65537 (0x10001)
        X509v3 extensions:
            X509v3 Basic Constraints: 
                CA:FALSE
            Netscape Comment: 
                OpenSSL Generated Certificate
            X509v3 Subject Key Identifier: 
                40:67:EF:2E:02:77:36:3B:01:1C:F3:2E:47:12:55:A1:17:57:60:06
            X509v3 Authority Key Identifier: 
                keyid:55:33:DE:C8:C8:90:75:23:F5:93:10:77:FE:82:FB:FD:A5:CC:4A:EE

    Signature Algorithm: sha1WithRSAEncryption
         93:ba:6c:a4:e3:0f:4a:4b:c8:78:f1:61:4e:b4:dc:d4:36:72:
         3a:3b:03:a1:b1:cf:0c:e3:76:3e:79:d5:2b:be:83:45:02:27:
         7f:af:8f:65:a5:26:c4:d8:da:c4:f5:73:e3:2b:78:96:6a:a3:
         a5:cf:57:af:67:64:eb:68:7e:a8:55:16:05:26:f1:53:ff:27:
         8c:4b:60:e6:88:70:81:19:3d:7b:16:43:d3:ba:b9:74:a0:a7:
         92:04:40:f7:10:f1:6e:c8:47:5d:45:d1:b7:ff:a3:00:af:54:
         6e:72:02:3d:84:3d:76:cc:d2:49:7b:10:d1:19:fa:61:d7:70:
         af:40
-----BEGIN CERTIFICATE-----
MIICuDCCAiGgAwIBAgIBBzANBgkqhkiG9w0BAQUFADCBhDELMAkGA1UEBhMCRVMx
DzANBgNVBAgMBk11cmNpYTEPMA0GA1UEBwwGTXVyY2lhMQswCQYDVQQKDAJVTTEM
MAoGA1UECwwDU1RBMRMwEQYDVQQDDAphbnRvbmlvLWNhMSMwIQYJKoZIhvcNAQkB
FhRhbnRvbmlvLnZpZGFsMkB1bS5lczAeFw0xMzAxMTExNjM5MDRaFw0xNDAxMTEx
NjM5MDRaMEIxCzAJBgNVBAYTAkVTMQ8wDQYDVQQIDAZNdXJjaWExCzAJBgNVBAoM
AlVNMRUwEwYDVQQDDAxhc3Rlcmlzay5jb20wgZ8wDQYJKoZIhvcNAQEBBQADgY0A
MIGJAoGBAJ0/DUXbhOeJklL3Nr/scwVCF4iwQD2e7ne5HoenpypaxzmOZaVOqOxK
S4TbNKC2HqnK9vpMDWM9ysglMh6ZPb6ec7uECM+0bNs9yAAOAmaI0WDxj6vUpXPx
uAKtzIMqCeynCgXauU1C/WWqvxH7UqLQaSoCm1Vg11jn3scuUe4rAgMBAAGjezB5
MAkGA1UdEwQCMAAwLAYJYIZIAYb4QgENBB8WHU9wZW5TU0wgR2VuZXJhdGVkIENl
cnRpZmljYXRlMB0GA1UdDgQWBBRAZ+8uAnc2OwEc8y5HElWhF1dgBjAfBgNVHSME
GDAWgBRVM97IyJB1I/WTEHf+gvv9pcxK7jANBgkqhkiG9w0BAQUFAAOBgQCTumyk
4w9KS8h48WFOtNzUNnI6OwOhsc8M43Y+edUrvoNFAid/r49lpSbE2NrE9XPjK3iW
aqOlz1evZ2TraH6oVRYFJvFT/yeMS2DmiHCBGT17FkPTurl0oKeSBED3EPFuyEdd
RdG3/6MAr1RucgI9hD12zNJJexDRGfph13CvQA==
-----END CERTIFICATE-----
