Certificate:
    Data:
        Version: 3 (0x2)
        Serial Number: 8 (0x8)
    Signature Algorithm: sha1WithRSAEncryption
        Issuer: C=ES, ST=Murcia, L=Murcia, O=UM, OU=STA, CN=antonio-ca/emailAddress=antonio.vidal2@um.es
        Validity
            Not Before: Jan 11 16:43:04 2013 GMT
            Not After : Jan 11 16:43:04 2014 GMT
        Subject: C=ES, ST=Murcia, O=UM, CN=cliente.com
        Subject Public Key Info:
            Public Key Algorithm: rsaEncryption
                Public-Key: (1024 bit)
                Modulus:
                    00:c4:af:a6:99:33:5f:68:58:3d:b7:8c:ed:d9:bd:
                    40:0c:06:1b:9f:e7:23:95:72:65:ca:1d:24:bd:a6:
                    fb:85:74:bc:e3:d2:bb:85:53:1d:cc:d4:91:f3:c4:
                    85:04:c2:47:6b:12:51:50:65:a6:10:1b:22:ca:f0:
                    0e:12:46:12:6d:ca:26:64:f3:6b:4a:13:c7:41:0d:
                    27:73:d0:83:f1:c1:90:e4:b5:20:ae:e3:a4:df:08:
                    0b:69:63:03:d7:3b:75:a5:40:e3:b9:01:48:dc:39:
                    d8:68:30:3e:8b:4c:f8:07:c6:c2:ce:37:1b:c0:ac:
                    ae:29:53:b8:d0:80:6e:6b:5f
                Exponent: 65537 (0x10001)
        X509v3 extensions:
            X509v3 Basic Constraints: 
                CA:FALSE
            Netscape Comment: 
                OpenSSL Generated Certificate
            X509v3 Subject Key Identifier: 
                41:19:61:7B:DD:85:69:31:B8:6F:22:DA:D8:CF:9D:84:DB:45:4E:81
            X509v3 Authority Key Identifier: 
                keyid:55:33:DE:C8:C8:90:75:23:F5:93:10:77:FE:82:FB:FD:A5:CC:4A:EE

    Signature Algorithm: sha1WithRSAEncryption
         50:28:b4:a3:d2:72:e2:d3:9b:db:74:3f:43:28:3c:a5:be:74:
         80:94:e4:5b:46:4b:c4:fd:66:87:41:69:1b:52:b2:3b:05:7e:
         a8:29:fa:27:96:58:ee:27:05:b0:c8:c0:52:00:53:49:ab:83:
         88:43:a9:d3:ca:99:7d:b8:20:d4:4a:76:65:c4:48:d5:04:77:
         cf:ba:e2:c3:ad:f1:26:09:fd:ab:20:b2:54:d7:30:7c:c1:f2:
         c9:b3:6c:d2:e9:19:b6:24:c4:2c:c7:ea:77:84:ef:98:2f:32:
         43:be:30:c1:7d:b2:f3:23:8a:93:dd:b5:b0:26:95:6f:d3:29:
         fd:07
-----BEGIN CERTIFICATE-----
MIICtzCCAiCgAwIBAgIBCDANBgkqhkiG9w0BAQUFADCBhDELMAkGA1UEBhMCRVMx
DzANBgNVBAgMBk11cmNpYTEPMA0GA1UEBwwGTXVyY2lhMQswCQYDVQQKDAJVTTEM
MAoGA1UECwwDU1RBMRMwEQYDVQQDDAphbnRvbmlvLWNhMSMwIQYJKoZIhvcNAQkB
FhRhbnRvbmlvLnZpZGFsMkB1bS5lczAeFw0xMzAxMTExNjQzMDRaFw0xNDAxMTEx
NjQzMDRaMEExCzAJBgNVBAYTAkVTMQ8wDQYDVQQIDAZNdXJjaWExCzAJBgNVBAoM
AlVNMRQwEgYDVQQDDAtjbGllbnRlLmNvbTCBnzANBgkqhkiG9w0BAQEFAAOBjQAw
gYkCgYEAxK+mmTNfaFg9t4zt2b1ADAYbn+cjlXJlyh0kvab7hXS849K7hVMdzNSR
88SFBMJHaxJRUGWmEBsiyvAOEkYSbcomZPNrShPHQQ0nc9CD8cGQ5LUgruOk3wgL
aWMD1zt1pUDjuQFI3DnYaDA+i0z4B8bCzjcbwKyuKVO40IBua18CAwEAAaN7MHkw
CQYDVR0TBAIwADAsBglghkgBhvhCAQ0EHxYdT3BlblNTTCBHZW5lcmF0ZWQgQ2Vy
dGlmaWNhdGUwHQYDVR0OBBYEFEEZYXvdhWkxuG8i2tjPnYTbRU6BMB8GA1UdIwQY
MBaAFFUz3sjIkHUj9ZMQd/6C+/2lzEruMA0GCSqGSIb3DQEBBQUAA4GBAFAotKPS
cuLTm9t0P0MoPKW+dICU5FtGS8T9ZodBaRtSsjsFfqgp+ieWWO4nBbDIwFIAU0mr
g4hDqdPKmX24INRKdmXESNUEd8+64sOt8SYJ/asgslTXMHzB8smzbNLpGbYkxCzH
6neE75gvMkO+MMF9svMjipPdtbAmlW/TKf0H
-----END CERTIFICATE-----
