Certificate:
    Data:
        Version: 3 (0x2)
        Serial Number: 9 (0x9)
    Signature Algorithm: sha1WithRSAEncryption
        Issuer: C=ES, ST=Murcia, L=Murcia, O=UM, OU=STA, CN=antonio-ca/emailAddress=antonio.vidal2@um.es
        Validity
            Not Before: Jan 11 17:30:25 2013 GMT
            Not After : Jan 11 17:30:25 2014 GMT
        Subject: C=ES, ST=Murcia, O=UM, CN=192.168.1.36
        Subject Public Key Info:
            Public Key Algorithm: rsaEncryption
                Public-Key: (1024 bit)
                Modulus:
                    00:bb:3a:01:5b:fb:2a:e7:4c:ae:05:e3:bf:21:61:
                    5e:5e:c8:5e:89:90:9c:c6:f5:9a:c0:34:2b:7c:f7:
                    80:93:15:21:8c:69:41:7e:12:85:bd:8f:58:2d:72:
                    e3:a5:96:15:91:a0:d6:a3:5b:d5:d9:76:bc:63:16:
                    03:81:05:45:80:26:35:eb:cc:8d:f1:3b:d5:b3:a9:
                    20:2c:66:a1:69:77:2e:2b:c3:7b:fe:f1:cc:88:1b:
                    da:66:39:54:14:67:f7:98:3c:85:54:56:95:90:02:
                    4f:7e:cc:74:5f:02:2a:68:bd:6c:3c:5e:14:f9:a6:
                    69:6f:9f:36:d9:b4:ca:c5:4f
                Exponent: 65537 (0x10001)
        X509v3 extensions:
            X509v3 Basic Constraints: 
                CA:FALSE
            Netscape Comment: 
                OpenSSL Generated Certificate
            X509v3 Subject Key Identifier: 
                F7:E1:33:FF:BD:63:6E:22:84:E6:D6:CF:B4:03:1B:11:EF:24:D3:32
            X509v3 Authority Key Identifier: 
                keyid:55:33:DE:C8:C8:90:75:23:F5:93:10:77:FE:82:FB:FD:A5:CC:4A:EE

    Signature Algorithm: sha1WithRSAEncryption
         76:6d:83:2c:06:6b:bf:be:46:50:fd:37:9c:86:43:0e:f7:db:
         42:c9:4b:d5:76:b5:5b:b1:91:2d:ae:e5:4b:c7:33:d9:c0:b6:
         3d:3d:79:90:66:48:f4:e3:a0:4e:75:72:1d:76:20:c7:d5:53:
         c0:57:80:ce:a7:4d:98:82:53:0d:34:47:34:c9:ad:b4:43:7e:
         3f:e5:0a:66:c9:96:85:d5:c1:02:a5:e3:36:21:af:7f:24:98:
         d1:a2:47:3d:01:dc:8f:7b:e0:02:07:d2:e5:e3:c4:c4:1b:f4:
         b6:35:20:71:f5:7e:7c:03:a7:78:34:7d:5e:75:8c:eb:35:c0:
         60:5a
-----BEGIN CERTIFICATE-----
MIICuDCCAiGgAwIBAgIBCTANBgkqhkiG9w0BAQUFADCBhDELMAkGA1UEBhMCRVMx
DzANBgNVBAgMBk11cmNpYTEPMA0GA1UEBwwGTXVyY2lhMQswCQYDVQQKDAJVTTEM
MAoGA1UECwwDU1RBMRMwEQYDVQQDDAphbnRvbmlvLWNhMSMwIQYJKoZIhvcNAQkB
FhRhbnRvbmlvLnZpZGFsMkB1bS5lczAeFw0xMzAxMTExNzMwMjVaFw0xNDAxMTEx
NzMwMjVaMEIxCzAJBgNVBAYTAkVTMQ8wDQYDVQQIDAZNdXJjaWExCzAJBgNVBAoM
AlVNMRUwEwYDVQQDDAwxOTIuMTY4LjEuMzYwgZ8wDQYJKoZIhvcNAQEBBQADgY0A
MIGJAoGBALs6AVv7KudMrgXjvyFhXl7IXomQnMb1msA0K3z3gJMVIYxpQX4Shb2P
WC1y46WWFZGg1qNb1dl2vGMWA4EFRYAmNevMjfE71bOpICxmoWl3LivDe/7xzIgb
2mY5VBRn95g8hVRWlZACT37MdF8CKmi9bDxeFPmmaW+fNtm0ysVPAgMBAAGjezB5
MAkGA1UdEwQCMAAwLAYJYIZIAYb4QgENBB8WHU9wZW5TU0wgR2VuZXJhdGVkIENl
cnRpZmljYXRlMB0GA1UdDgQWBBT34TP/vWNuIoTm1s+0AxsR7yTTMjAfBgNVHSME
GDAWgBRVM97IyJB1I/WTEHf+gvv9pcxK7jANBgkqhkiG9w0BAQUFAAOBgQB2bYMs
Bmu/vkZQ/TechkMO99tCyUvVdrVbsZEtruVLxzPZwLY9PXmQZkj046BOdXIddiDH
1VPAV4DOp02YglMNNEc0ya20Q34/5QpmyZaF1cECpeM2Ia9/JJjRokc9AdyPe+AC
B9Ll48TEG/S2NSBx9X58A6d4NH1edYzrNcBgWg==
-----END CERTIFICATE-----
