Certificate:
    Data:
        Version: 3 (0x2)
        Serial Number: 10 (0xa)
    Signature Algorithm: sha1WithRSAEncryption
        Issuer: C=ES, ST=Murcia, L=Murcia, O=UM, OU=STA, CN=antonio-ca/emailAddress=antonio.vidal2@um.es
        Validity
            Not Before: Jan 11 17:36:28 2013 GMT
            Not After : Jan 11 17:36:28 2014 GMT
        Subject: C=ES, ST=Murcia, O=UM, CN=192.168.1.36/emailAddress=cliente
        Subject Public Key Info:
            Public Key Algorithm: rsaEncryption
                Public-Key: (1024 bit)
                Modulus:
                    00:b8:63:48:d0:cf:28:16:4b:c4:ed:dc:d6:71:2d:
                    3b:b2:62:68:6d:07:0d:37:7f:f6:cb:e0:40:68:56:
                    8e:0f:1a:25:e7:c8:05:07:c6:e0:48:7d:dd:dc:1b:
                    45:56:c2:d2:95:9d:1b:79:e6:db:84:97:6a:ae:6e:
                    38:ec:fd:2a:3a:cb:11:98:92:00:9a:1b:bc:75:a0:
                    67:58:79:79:f1:a6:9e:99:53:4e:da:f1:23:d9:e8:
                    59:8d:e4:67:fd:79:44:a8:59:87:de:ec:24:94:e9:
                    dd:d2:59:c1:f0:d0:33:28:b1:95:07:a0:30:d8:81:
                    e7:bf:72:fb:70:de:c0:f1:3d
                Exponent: 65537 (0x10001)
        X509v3 extensions:
            X509v3 Basic Constraints: 
                CA:FALSE
            Netscape Comment: 
                OpenSSL Generated Certificate
            X509v3 Subject Key Identifier: 
                54:94:3A:4C:4E:1E:B4:BA:90:8B:B4:54:AC:E5:DE:00:80:99:80:91
            X509v3 Authority Key Identifier: 
                keyid:55:33:DE:C8:C8:90:75:23:F5:93:10:77:FE:82:FB:FD:A5:CC:4A:EE

    Signature Algorithm: sha1WithRSAEncryption
         7f:ba:aa:a4:dd:df:b4:d8:57:99:ed:da:38:7d:2a:b3:95:4c:
         f9:17:73:fd:b5:e7:e3:1e:dd:eb:07:44:24:38:4d:b4:75:0a:
         6b:39:24:46:ed:a1:5b:39:8a:c0:4f:b0:c3:0f:69:5e:34:c4:
         44:24:9b:ec:42:24:20:3b:6f:7e:a3:7c:80:cd:07:1a:cc:91:
         a1:24:b6:dd:59:6f:48:b7:55:33:63:79:7c:ca:3e:43:96:49:
         9d:ca:7a:5c:81:ae:33:bd:5d:4d:28:9f:59:47:4d:f1:e5:dd:
         a0:37:9b:51:85:b0:60:3a:0f:f8:ed:2e:e3:80:fb:eb:9f:f3:
         8b:8b
-----BEGIN CERTIFICATE-----
MIIC0DCCAjmgAwIBAgIBCjANBgkqhkiG9w0BAQUFADCBhDELMAkGA1UEBhMCRVMx
DzANBgNVBAgMBk11cmNpYTEPMA0GA1UEBwwGTXVyY2lhMQswCQYDVQQKDAJVTTEM
MAoGA1UECwwDU1RBMRMwEQYDVQQDDAphbnRvbmlvLWNhMSMwIQYJKoZIhvcNAQkB
FhRhbnRvbmlvLnZpZGFsMkB1bS5lczAeFw0xMzAxMTExNzM2MjhaFw0xNDAxMTEx
NzM2MjhaMFoxCzAJBgNVBAYTAkVTMQ8wDQYDVQQIDAZNdXJjaWExCzAJBgNVBAoM
AlVNMRUwEwYDVQQDDAwxOTIuMTY4LjEuMzYxFjAUBgkqhkiG9w0BCQEWB2NsaWVu
dGUwgZ8wDQYJKoZIhvcNAQEBBQADgY0AMIGJAoGBALhjSNDPKBZLxO3c1nEtO7Ji
aG0HDTd/9svgQGhWjg8aJefIBQfG4Eh93dwbRVbC0pWdG3nm24SXaq5uOOz9KjrL
EZiSAJobvHWgZ1h5efGmnplTTtrxI9noWY3kZ/15RKhZh97sJJTp3dJZwfDQMyix
lQegMNiB579y+3DewPE9AgMBAAGjezB5MAkGA1UdEwQCMAAwLAYJYIZIAYb4QgEN
BB8WHU9wZW5TU0wgR2VuZXJhdGVkIENlcnRpZmljYXRlMB0GA1UdDgQWBBRUlDpM
Th60upCLtFSs5d4AgJmAkTAfBgNVHSMEGDAWgBRVM97IyJB1I/WTEHf+gvv9pcxK
7jANBgkqhkiG9w0BAQUFAAOBgQB/uqqk3d+02FeZ7do4fSqzlUz5F3P9tefjHt3r
B0QkOE20dQprOSRG7aFbOYrAT7DDD2leNMREJJvsQiQgO29+o3yAzQcazJGhJLbd
WW9It1UzY3l8yj5Dlkmdynpcga4zvV1NKJ9ZR03x5d2gN5tRhbBgOg/47S7jgPvr
n/OLiw==
-----END CERTIFICATE-----
