Certificate:
    Data:
        Version: 3 (0x2)
        Serial Number: 11 (0xb)
    Signature Algorithm: sha1WithRSAEncryption
        Issuer: C=ES, ST=Murcia, L=Murcia, O=UM, OU=STA, CN=antonio-ca/emailAddress=antonio.vidal2@um.es
        Validity
            Not Before: Jan 15 19:55:11 2013 GMT
            Not After : Jan 15 19:55:11 2014 GMT
        Subject: C=ES, ST=Murcia, O=UM, CN=agente
        Subject Public Key Info:
            Public Key Algorithm: rsaEncryption
                Public-Key: (1024 bit)
                Modulus:
                    00:b8:10:bf:86:e0:e0:74:ac:55:0a:eb:75:62:77:
                    a9:c5:43:c5:86:11:03:cf:2c:b7:86:0a:66:d6:e9:
                    0d:4e:4b:4c:39:7d:1a:0c:3c:f3:55:e3:ac:b3:e7:
                    48:7a:ea:84:0f:86:07:78:6b:cb:16:e2:40:d9:b7:
                    0e:a7:ce:71:69:2d:6a:3d:51:09:84:d8:71:28:ed:
                    e0:29:3b:a6:84:73:cb:26:78:9b:8f:7f:0a:c6:dc:
                    28:19:31:e8:23:31:26:e7:69:e4:92:5a:57:fe:f9:
                    32:29:5d:cf:6e:3e:7e:c6:ad:01:2a:9a:ce:32:b8:
                    40:90:11:c2:26:36:09:3f:1f
                Exponent: 65537 (0x10001)
        X509v3 extensions:
            X509v3 Basic Constraints: 
                CA:FALSE
            Netscape Comment: 
                OpenSSL Generated Certificate
            X509v3 Subject Key Identifier: 
                67:FA:B6:C3:4A:45:B6:A8:71:93:BB:39:65:EC:EB:39:1D:68:B4:DB
            X509v3 Authority Key Identifier: 
                keyid:55:33:DE:C8:C8:90:75:23:F5:93:10:77:FE:82:FB:FD:A5:CC:4A:EE

    Signature Algorithm: sha1WithRSAEncryption
         60:5d:44:d6:9f:3c:4b:48:28:92:16:39:c7:68:f6:c4:3a:79:
         69:c8:82:71:4e:2f:88:5e:5b:b0:7d:e8:94:31:bd:51:c6:1d:
         1a:5f:ae:ce:86:04:b2:6e:10:f4:c2:f1:ee:aa:98:23:8c:29:
         d7:a3:50:b3:be:20:4e:e4:99:3e:e0:6b:66:aa:20:39:c1:c9:
         06:85:14:3c:bf:61:20:64:75:57:99:dd:e8:ec:f5:8a:84:02:
         1e:1f:52:d7:32:fa:5d:bc:f3:76:8d:84:4f:4b:52:cb:e4:0c:
         a8:67:e4:4f:cc:ef:53:57:54:3d:7c:a5:5b:9f:0e:4a:a6:a0:
         1b:9b
-----BEGIN CERTIFICATE-----
MIICsjCCAhugAwIBAgIBCzANBgkqhkiG9w0BAQUFADCBhDELMAkGA1UEBhMCRVMx
DzANBgNVBAgMBk11cmNpYTEPMA0GA1UEBwwGTXVyY2lhMQswCQYDVQQKDAJVTTEM
MAoGA1UECwwDU1RBMRMwEQYDVQQDDAphbnRvbmlvLWNhMSMwIQYJKoZIhvcNAQkB
FhRhbnRvbmlvLnZpZGFsMkB1bS5lczAeFw0xMzAxMTUxOTU1MTFaFw0xNDAxMTUx
OTU1MTFaMDwxCzAJBgNVBAYTAkVTMQ8wDQYDVQQIDAZNdXJjaWExCzAJBgNVBAoM
AlVNMQ8wDQYDVQQDDAZhZ2VudGUwgZ8wDQYJKoZIhvcNAQEBBQADgY0AMIGJAoGB
ALgQv4bg4HSsVQrrdWJ3qcVDxYYRA88st4YKZtbpDU5LTDl9Ggw881XjrLPnSHrq
hA+GB3hryxbiQNm3DqfOcWktaj1RCYTYcSjt4Ck7poRzyyZ4m49/CsbcKBkx6CMx
Judp5JJaV/75Mildz24+fsatASqazjK4QJARwiY2CT8fAgMBAAGjezB5MAkGA1Ud
EwQCMAAwLAYJYIZIAYb4QgENBB8WHU9wZW5TU0wgR2VuZXJhdGVkIENlcnRpZmlj
YXRlMB0GA1UdDgQWBBRn+rbDSkW2qHGTuzll7Os5HWi02zAfBgNVHSMEGDAWgBRV
M97IyJB1I/WTEHf+gvv9pcxK7jANBgkqhkiG9w0BAQUFAAOBgQBgXUTWnzxLSCiS
FjnHaPbEOnlpyIJxTi+IXluwfeiUMb1Rxh0aX67OhgSybhD0wvHuqpgjjCnXo1Cz
viBO5Jk+4GtmqiA5wckGhRQ8v2EgZHVXmd3o7PWKhAIeH1LXMvpdvPN2jYRPS1LL
5AyoZ+RPzO9TV1Q9fKVbnw5KpqAbmw==
-----END CERTIFICATE-----
