Certificate:
    Data:
        Version: 3 (0x2)
        Serial Number: 12 (0xc)
    Signature Algorithm: sha1WithRSAEncryption
        Issuer: C=ES, ST=Murcia, L=Murcia, O=UM, OU=STA, CN=antonio-ca/emailAddress=antonio.vidal2@um.es
        Validity
            Not Before: Jan 15 19:55:49 2013 GMT
            Not After : Jan 15 19:55:49 2014 GMT
        Subject: C=ES, ST=Murcia, O=UM, CN=manejador
        Subject Public Key Info:
            Public Key Algorithm: rsaEncryption
                Public-Key: (1024 bit)
                Modulus:
                    00:b1:af:ef:d9:b4:cf:66:df:d7:31:73:74:4e:bf:
                    42:f4:cd:41:21:30:93:9e:9b:de:36:c3:01:92:41:
                    6b:a9:22:2b:d3:11:f4:f8:33:74:69:95:8f:e9:68:
                    21:e3:d9:e0:6f:64:c4:e7:a5:b7:9b:5f:d4:49:40:
                    74:7d:10:d0:28:f9:a8:2b:e5:f4:7c:0d:5b:9a:44:
                    d7:08:9d:42:4f:16:97:e4:c4:76:a1:64:79:87:0d:
                    a0:61:8a:26:d8:ca:0d:46:4d:17:16:9f:3c:28:65:
                    b5:62:e0:16:de:cb:b7:81:1e:f2:a1:07:f0:d1:20:
                    19:dd:f3:b6:67:cb:f2:ee:45
                Exponent: 65537 (0x10001)
        X509v3 extensions:
            X509v3 Basic Constraints: 
                CA:FALSE
            Netscape Comment: 
                OpenSSL Generated Certificate
            X509v3 Subject Key Identifier: 
                B1:16:6B:11:42:17:8A:CB:C6:E9:71:35:26:D6:6B:F9:52:1C:3C:7A
            X509v3 Authority Key Identifier: 
                keyid:55:33:DE:C8:C8:90:75:23:F5:93:10:77:FE:82:FB:FD:A5:CC:4A:EE

    Signature Algorithm: sha1WithRSAEncryption
         30:ae:d7:08:d8:f2:65:dd:c2:03:15:e0:2e:02:5f:f2:7c:57:
         31:00:10:06:38:85:c7:3c:95:1e:8d:ec:e9:23:24:42:98:75:
         24:f7:fb:b5:d1:ed:f1:90:b4:0c:d1:f1:bf:9e:f6:7a:19:a1:
         67:1e:73:19:d7:a2:5c:52:8c:5b:b2:47:41:3c:07:25:06:5c:
         14:61:07:18:a7:80:21:cf:5c:01:19:52:bb:5a:75:60:cc:ba:
         07:cc:3d:cc:ae:0b:8a:e9:b7:26:50:32:18:e9:b3:2c:73:e3:
         46:b3:f9:9e:5c:54:dc:b7:cf:1c:5e:76:80:bc:3d:a1:65:d0:
         d2:b0
-----BEGIN CERTIFICATE-----
MIICtTCCAh6gAwIBAgIBDDANBgkqhkiG9w0BAQUFADCBhDELMAkGA1UEBhMCRVMx
DzANBgNVBAgMBk11cmNpYTEPMA0GA1UEBwwGTXVyY2lhMQswCQYDVQQKDAJVTTEM
MAoGA1UECwwDU1RBMRMwEQYDVQQDDAphbnRvbmlvLWNhMSMwIQYJKoZIhvcNAQkB
FhRhbnRvbmlvLnZpZGFsMkB1bS5lczAeFw0xMzAxMTUxOTU1NDlaFw0xNDAxMTUx
OTU1NDlaMD8xCzAJBgNVBAYTAkVTMQ8wDQYDVQQIDAZNdXJjaWExCzAJBgNVBAoM
AlVNMRIwEAYDVQQDDAltYW5lamFkb3IwgZ8wDQYJKoZIhvcNAQEBBQADgY0AMIGJ
AoGBALGv79m0z2bf1zFzdE6/QvTNQSEwk56b3jbDAZJBa6kiK9MR9PgzdGmVj+lo
IePZ4G9kxOelt5tf1ElAdH0Q0Cj5qCvl9HwNW5pE1widQk8Wl+TEdqFkeYcNoGGK
JtjKDUZNFxafPChltWLgFt7Lt4Ee8qEH8NEgGd3ztmfL8u5FAgMBAAGjezB5MAkG
A1UdEwQCMAAwLAYJYIZIAYb4QgENBB8WHU9wZW5TU0wgR2VuZXJhdGVkIENlcnRp
ZmljYXRlMB0GA1UdDgQWBBSxFmsRQheKy8bpcTUm1mv5Uhw8ejAfBgNVHSMEGDAW
gBRVM97IyJB1I/WTEHf+gvv9pcxK7jANBgkqhkiG9w0BAQUFAAOBgQAwrtcI2PJl
3cIDFeAuAl/yfFcxABAGOIXHPJUejezpIyRCmHUk9/u10e3xkLQM0fG/nvZ6GaFn
HnMZ16JcUoxbskdBPAclBlwUYQcYp4Ahz1wBGVK7WnVgzLoHzD3MrguK6bcmUDIY
6bMsc+NGs/meXFTct88cXnaAvD2hZdDSsA==
-----END CERTIFICATE-----
