Certificate:
    Data:
        Version: 3 (0x2)
        Serial Number: 13 (0xd)
    Signature Algorithm: sha1WithRSAEncryption
        Issuer: C=ES, ST=Murcia, L=Murcia, O=UM, OU=STA, CN=antonio-ca/emailAddress=antonio.vidal2@um.es
        Validity
            Not Before: Jan 16 10:45:45 2013 GMT
            Not After : Jan 16 10:45:45 2014 GMT
        Subject: C=ES, ST=Murcia, O=UM, CN=192.168.1.38
        Subject Public Key Info:
            Public Key Algorithm: rsaEncryption
                Public-Key: (1024 bit)
                Modulus:
                    00:b7:a7:83:df:8f:7e:89:c0:10:db:17:5b:26:ab:
                    a1:24:a0:85:5c:ca:14:38:9c:a8:23:1f:8c:2c:ec:
                    37:76:92:c9:39:82:8b:bc:8e:e1:a5:7f:48:08:dc:
                    00:1b:c5:98:04:ef:b9:20:e0:a3:39:04:28:14:62:
                    4e:37:9f:49:10:e7:38:b0:37:1a:b9:94:d0:e6:ac:
                    2b:2a:46:43:42:ca:50:9c:75:7d:94:6f:d1:23:4a:
                    f9:b1:4b:c8:b4:ae:98:a8:83:05:79:8e:61:f6:f6:
                    ad:b1:02:f8:43:e8:c9:60:8b:02:fc:16:97:ad:58:
                    f9:96:68:06:82:26:f7:46:b9
                Exponent: 65537 (0x10001)
        X509v3 extensions:
            X509v3 Basic Constraints: 
                CA:FALSE
            Netscape Comment: 
                OpenSSL Generated Certificate
            X509v3 Subject Key Identifier: 
                82:53:1F:F6:E7:A5:39:96:9D:60:39:59:B3:71:7F:33:D9:20:65:87
            X509v3 Authority Key Identifier: 
                keyid:55:33:DE:C8:C8:90:75:23:F5:93:10:77:FE:82:FB:FD:A5:CC:4A:EE

    Signature Algorithm: sha1WithRSAEncryption
         2f:dc:a8:e2:99:04:4c:c3:8a:e5:fc:72:a0:80:f1:4c:4b:c8:
         4b:59:b8:7e:38:28:11:83:10:e5:49:d9:7c:a3:14:2f:4e:3a:
         d1:d5:02:c8:32:7d:e0:1d:c0:38:d3:78:a4:75:38:3a:d8:2c:
         5d:d1:1e:5b:2c:46:cf:e4:b8:4e:75:5d:9b:5a:5b:6d:7b:4c:
         20:86:46:54:54:f8:ed:c0:95:8c:1d:8e:83:2f:0b:70:b0:bd:
         a3:48:57:ff:1c:ba:d7:16:6e:7f:fb:48:6d:61:c6:0e:fa:19:
         74:ba:60:be:a1:4f:23:99:b7:33:21:09:74:61:14:c9:f3:5c:
         70:5c
-----BEGIN CERTIFICATE-----
MIICuDCCAiGgAwIBAgIBDTANBgkqhkiG9w0BAQUFADCBhDELMAkGA1UEBhMCRVMx
DzANBgNVBAgMBk11cmNpYTEPMA0GA1UEBwwGTXVyY2lhMQswCQYDVQQKDAJVTTEM
MAoGA1UECwwDU1RBMRMwEQYDVQQDDAphbnRvbmlvLWNhMSMwIQYJKoZIhvcNAQkB
FhRhbnRvbmlvLnZpZGFsMkB1bS5lczAeFw0xMzAxMTYxMDQ1NDVaFw0xNDAxMTYx
MDQ1NDVaMEIxCzAJBgNVBAYTAkVTMQ8wDQYDVQQIDAZNdXJjaWExCzAJBgNVBAoM
AlVNMRUwEwYDVQQDDAwxOTIuMTY4LjEuMzgwgZ8wDQYJKoZIhvcNAQEBBQADgY0A
MIGJAoGBALeng9+PfonAENsXWyaroSSghVzKFDicqCMfjCzsN3aSyTmCi7yO4aV/
SAjcABvFmATvuSDgozkEKBRiTjefSRDnOLA3GrmU0OasKypGQ0LKUJx1fZRv0SNK
+bFLyLSumKiDBXmOYfb2rbEC+EPoyWCLAvwWl61Y+ZZoBoIm90a5AgMBAAGjezB5
MAkGA1UdEwQCMAAwLAYJYIZIAYb4QgENBB8WHU9wZW5TU0wgR2VuZXJhdGVkIENl
cnRpZmljYXRlMB0GA1UdDgQWBBSCUx/256U5lp1gOVmzcX8z2SBlhzAfBgNVHSME
GDAWgBRVM97IyJB1I/WTEHf+gvv9pcxK7jANBgkqhkiG9w0BAQUFAAOBgQAv3Kji
mQRMw4rl/HKggPFMS8hLWbh+OCgRgxDlSdl8oxQvTjrR1QLIMn3gHcA403ikdTg6
2Cxd0R5bLEbP5LhOdV2bWltte0wghkZUVPjtwJWMHY6DLwtwsL2jSFf/HLrXFm5/
+0htYcYO+hl0umC+oU8jmbczIQl0YRTJ81xwXA==
-----END CERTIFICATE-----
