Certificate:
    Data:
        Version: 3 (0x2)
        Serial Number: 14 (0xe)
    Signature Algorithm: sha1WithRSAEncryption
        Issuer: C=ES, ST=Murcia, L=Murcia, O=UM, OU=STA, CN=antonio-ca/emailAddress=antonio.vidal2@um.es
        Validity
            Not Before: Jan 16 10:46:32 2013 GMT
            Not After : Jan 16 10:46:32 2014 GMT
        Subject: C=ES, ST=Murcia, O=UM, CN=192.168.1.39
        Subject Public Key Info:
            Public Key Algorithm: rsaEncryption
                Public-Key: (1024 bit)
                Modulus:
                    00:c0:13:52:e9:10:94:56:58:8b:96:3f:26:9f:29:
                    ac:8f:86:dd:b0:cb:74:f3:7f:ea:55:a8:d9:aa:0e:
                    dd:70:ae:01:3a:53:4a:52:76:78:93:20:a7:ff:12:
                    82:05:53:21:57:dc:e4:b6:44:14:2d:51:e6:a2:04:
                    be:9e:ec:2d:a9:e7:c6:ba:2c:bf:4f:fd:3f:eb:55:
                    64:e3:05:76:0d:bf:07:04:6d:b0:c4:1c:df:77:99:
                    05:7c:57:3d:59:89:8b:a4:69:47:ce:bb:25:9d:a5:
                    d9:bc:19:54:ed:55:c7:f7:42:c7:5e:b4:34:8c:e1:
                    f3:aa:8c:61:a2:f4:88:d5:41
                Exponent: 65537 (0x10001)
        X509v3 extensions:
            X509v3 Basic Constraints: 
                CA:FALSE
            Netscape Comment: 
                OpenSSL Generated Certificate
            X509v3 Subject Key Identifier: 
                1C:21:84:D5:61:36:76:00:8C:87:34:08:EE:AD:7F:A7:02:95:27:B7
            X509v3 Authority Key Identifier: 
                keyid:55:33:DE:C8:C8:90:75:23:F5:93:10:77:FE:82:FB:FD:A5:CC:4A:EE

    Signature Algorithm: sha1WithRSAEncryption
         a5:a3:2b:eb:36:12:f1:8d:07:ba:4e:9e:99:b3:6a:81:b4:0a:
         68:50:63:aa:68:6e:88:d5:33:7f:96:d1:29:98:46:26:16:e4:
         ec:a6:18:28:a5:31:99:07:51:80:b0:0c:20:e1:37:a7:5f:85:
         1f:de:59:01:66:e2:39:e5:69:2f:9d:d2:22:16:2a:e2:af:73:
         13:c3:ce:13:fc:f8:9d:3e:d7:0d:4c:21:3f:39:20:6f:09:ae:
         0a:22:f4:e9:ff:38:41:48:60:32:72:f4:fd:9b:2f:cd:b5:c4:
         7e:68:96:4d:3f:77:c9:bc:f9:91:84:11:4f:a3:0f:2e:17:3d:
         e5:33
-----BEGIN CERTIFICATE-----
MIICuDCCAiGgAwIBAgIBDjANBgkqhkiG9w0BAQUFADCBhDELMAkGA1UEBhMCRVMx
DzANBgNVBAgMBk11cmNpYTEPMA0GA1UEBwwGTXVyY2lhMQswCQYDVQQKDAJVTTEM
MAoGA1UECwwDU1RBMRMwEQYDVQQDDAphbnRvbmlvLWNhMSMwIQYJKoZIhvcNAQkB
FhRhbnRvbmlvLnZpZGFsMkB1bS5lczAeFw0xMzAxMTYxMDQ2MzJaFw0xNDAxMTYx
MDQ2MzJaMEIxCzAJBgNVBAYTAkVTMQ8wDQYDVQQIDAZNdXJjaWExCzAJBgNVBAoM
AlVNMRUwEwYDVQQDDAwxOTIuMTY4LjEuMzkwgZ8wDQYJKoZIhvcNAQEBBQADgY0A
MIGJAoGBAMATUukQlFZYi5Y/Jp8prI+G3bDLdPN/6lWo2aoO3XCuATpTSlJ2eJMg
p/8SggVTIVfc5LZEFC1R5qIEvp7sLannxrosv0/9P+tVZOMFdg2/BwRtsMQc33eZ
BXxXPVmJi6RpR867JZ2l2bwZVO1Vx/dCx160NIzh86qMYaL0iNVBAgMBAAGjezB5
MAkGA1UdEwQCMAAwLAYJYIZIAYb4QgENBB8WHU9wZW5TU0wgR2VuZXJhdGVkIENl
cnRpZmljYXRlMB0GA1UdDgQWBBQcIYTVYTZ2AIyHNAjurX+nApUntzAfBgNVHSME
GDAWgBRVM97IyJB1I/WTEHf+gvv9pcxK7jANBgkqhkiG9w0BAQUFAAOBgQCloyvr
NhLxjQe6Tp6Zs2qBtApoUGOqaG6I1TN/ltEpmEYmFuTsphgopTGZB1GAsAwg4Ten
X4Uf3lkBZuI55WkvndIiFirir3MTw84T/PidPtcNTCE/OSBvCa4KIvTp/zhBSGAy
cvT9my/NtcR+aJZNP3fJvPmRhBFPow8uFz3lMw==
-----END CERTIFICATE-----
