Certificate:
    Data:
        Version: 3 (0x2)
        Serial Number: 15 (0xf)
    Signature Algorithm: sha1WithRSAEncryption
        Issuer: C=ES, ST=Murcia, L=Murcia, O=UM, OU=STA, CN=antonio-ca/emailAddress=antonio.vidal2@um.es
        Validity
            Not Before: Jan 17 10:46:49 2013 GMT
            Not After : Jan 17 10:46:49 2014 GMT
        Subject: C=ES, ST=Murcia, O=UM, CN=192.168.1.39
        Subject Public Key Info:
            Public Key Algorithm: rsaEncryption
                Public-Key: (1024 bit)
                Modulus:
                    00:d6:ff:49:f1:d3:0a:16:12:f0:29:f2:e5:59:28:
                    2b:cd:55:2a:4a:55:45:b8:81:e0:b8:47:f3:6e:93:
                    22:dd:99:33:68:68:0e:ab:d4:8e:2e:2e:ab:ac:84:
                    38:0e:68:9c:6b:3d:11:8d:bb:8b:79:33:c5:81:e9:
                    a6:d0:47:88:7e:00:6d:ac:8e:7a:01:6b:0e:bc:93:
                    d3:32:c4:77:e1:b1:40:61:7e:56:90:10:22:d0:e0:
                    7e:c0:a9:97:93:18:7c:72:34:b2:7f:5a:66:9a:d6:
                    42:3d:b6:66:63:e8:f7:5d:20:1d:86:66:46:fe:1a:
                    0e:d4:11:72:17:6b:5e:c9:83
                Exponent: 65537 (0x10001)
        X509v3 extensions:
            X509v3 Basic Constraints: 
                CA:FALSE
            Netscape Comment: 
                OpenSSL Generated Certificate
            X509v3 Subject Key Identifier: 
                90:4B:FF:EE:84:A2:AF:02:9B:7E:DA:AD:71:EB:5A:22:A5:61:9F:AC
            X509v3 Authority Key Identifier: 
                keyid:55:33:DE:C8:C8:90:75:23:F5:93:10:77:FE:82:FB:FD:A5:CC:4A:EE

    Signature Algorithm: sha1WithRSAEncryption
         68:f0:13:5f:8f:a4:9b:d9:75:4b:8f:c7:91:87:02:55:8e:24:
         ea:04:9a:6e:52:1f:83:23:a5:a1:df:2c:96:6b:94:88:a9:ad:
         9c:c0:bd:46:6d:90:0e:0d:1e:30:30:d4:1a:75:fc:9f:bd:cc:
         bc:98:1a:d6:9c:cf:23:45:1c:f5:c1:26:34:80:e7:18:e2:2c:
         6a:37:61:79:0e:eb:8a:80:9e:10:b7:8c:3d:e4:17:99:59:7d:
         24:a1:e9:ca:5e:50:5d:91:1c:7e:87:f1:e2:45:e6:9d:42:17:
         87:b9:b5:0d:8b:02:36:06:03:8b:67:72:2e:67:62:a6:4b:c9:
         aa:88
-----BEGIN CERTIFICATE-----
MIICuDCCAiGgAwIBAgIBDzANBgkqhkiG9w0BAQUFADCBhDELMAkGA1UEBhMCRVMx
DzANBgNVBAgMBk11cmNpYTEPMA0GA1UEBwwGTXVyY2lhMQswCQYDVQQKDAJVTTEM
MAoGA1UECwwDU1RBMRMwEQYDVQQDDAphbnRvbmlvLWNhMSMwIQYJKoZIhvcNAQkB
FhRhbnRvbmlvLnZpZGFsMkB1bS5lczAeFw0xMzAxMTcxMDQ2NDlaFw0xNDAxMTcx
MDQ2NDlaMEIxCzAJBgNVBAYTAkVTMQ8wDQYDVQQIDAZNdXJjaWExCzAJBgNVBAoM
AlVNMRUwEwYDVQQDDAwxOTIuMTY4LjEuMzkwgZ8wDQYJKoZIhvcNAQEBBQADgY0A
MIGJAoGBANb/SfHTChYS8Cny5VkoK81VKkpVRbiB4LhH826TIt2ZM2hoDqvUji4u
q6yEOA5onGs9EY27i3kzxYHpptBHiH4AbayOegFrDryT0zLEd+GxQGF+VpAQItDg
fsCpl5MYfHI0sn9aZprWQj22ZmPo910gHYZmRv4aDtQRchdrXsmDAgMBAAGjezB5
MAkGA1UdEwQCMAAwLAYJYIZIAYb4QgENBB8WHU9wZW5TU0wgR2VuZXJhdGVkIENl
cnRpZmljYXRlMB0GA1UdDgQWBBSQS//uhKKvApt+2q1x61oipWGfrDAfBgNVHSME
GDAWgBRVM97IyJB1I/WTEHf+gvv9pcxK7jANBgkqhkiG9w0BAQUFAAOBgQBo8BNf
j6Sb2XVLj8eRhwJVjiTqBJpuUh+DI6Wh3yyWa5SIqa2cwL1GbZAODR4wMNQadfyf
vcy8mBrWnM8jRRz1wSY0gOcY4ixqN2F5DuuKgJ4Qt4w95BeZWX0koenKXlBdkRx+
h/HiReadQheHubUNiwI2BgOLZ3IuZ2KmS8mqiA==
-----END CERTIFICATE-----
