Certificate:
    Data:
        Version: 3 (0x2)
        Serial Number: 16 (0x10)
    Signature Algorithm: sha1WithRSAEncryption
        Issuer: C=ES, ST=Murcia, L=Murcia, O=UM, OU=STA, CN=antonio-ca/emailAddress=antonio.vidal2@um.es
        Validity
            Not Before: Jan 17 11:02:51 2013 GMT
            Not After : Jan 17 11:02:51 2014 GMT
        Subject: C=ES, ST=Murcia, O=UM, CN=192.168.1.38
        Subject Public Key Info:
            Public Key Algorithm: rsaEncryption
                Public-Key: (1024 bit)
                Modulus:
                    00:bf:9a:73:e8:dd:79:4d:07:3c:f9:cc:95:c1:e3:
                    8a:12:13:1e:d7:ba:66:7e:ca:da:b0:a6:03:0d:fa:
                    c7:49:85:ce:88:08:b8:20:d7:e9:db:b8:b2:08:84:
                    35:f4:b9:d8:7a:fc:88:1c:cc:ed:98:0e:03:16:f7:
                    d5:70:c9:27:af:8a:2c:32:81:70:d4:b5:7e:ee:b3:
                    84:c5:7f:7c:d2:53:e9:4f:b5:f4:52:55:f1:d5:de:
                    70:d8:f7:2e:75:04:02:76:d7:21:8b:4f:76:7f:c9:
                    f7:92:8a:7a:42:69:c7:3d:e2:0a:9b:f7:7f:c1:17:
                    7f:34:e1:3c:d8:63:34:f8:d1
                Exponent: 65537 (0x10001)
        X509v3 extensions:
            X509v3 Basic Constraints: 
                CA:FALSE
            Netscape Comment: 
                OpenSSL Generated Certificate
            X509v3 Subject Key Identifier: 
                3F:16:F2:58:3C:3A:43:2E:96:85:DE:AB:B7:33:4D:CB:BB:41:96:E8
            X509v3 Authority Key Identifier: 
                keyid:55:33:DE:C8:C8:90:75:23:F5:93:10:77:FE:82:FB:FD:A5:CC:4A:EE

    Signature Algorithm: sha1WithRSAEncryption
         45:ee:4c:42:45:3d:95:7c:81:91:b2:2d:d4:7d:94:1c:76:85:
         79:e7:95:b5:99:99:6d:7a:e2:0e:d4:5b:e7:9a:11:20:a2:e4:
         81:0b:46:a4:78:44:79:f0:78:55:b4:16:f2:d4:47:e4:d3:62:
         c8:5f:9d:6c:60:5a:c4:d9:4a:b5:9a:28:0b:18:fe:aa:0b:0f:
         81:97:b9:12:58:51:21:6e:43:8d:50:20:4f:53:b6:49:8d:29:
         36:6d:77:62:6d:b8:61:b1:52:dc:4c:60:fc:07:bd:4c:78:bb:
         5d:11:fc:d1:57:5c:ed:fd:27:a4:00:f5:f4:5e:6f:42:51:23:
         3c:3a
-----BEGIN CERTIFICATE-----
MIICuDCCAiGgAwIBAgIBEDANBgkqhkiG9w0BAQUFADCBhDELMAkGA1UEBhMCRVMx
DzANBgNVBAgMBk11cmNpYTEPMA0GA1UEBwwGTXVyY2lhMQswCQYDVQQKDAJVTTEM
MAoGA1UECwwDU1RBMRMwEQYDVQQDDAphbnRvbmlvLWNhMSMwIQYJKoZIhvcNAQkB
FhRhbnRvbmlvLnZpZGFsMkB1bS5lczAeFw0xMzAxMTcxMTAyNTFaFw0xNDAxMTcx
MTAyNTFaMEIxCzAJBgNVBAYTAkVTMQ8wDQYDVQQIDAZNdXJjaWExCzAJBgNVBAoM
AlVNMRUwEwYDVQQDDAwxOTIuMTY4LjEuMzgwgZ8wDQYJKoZIhvcNAQEBBQADgY0A
MIGJAoGBAL+ac+jdeU0HPPnMlcHjihITHte6Zn7K2rCmAw36x0mFzogIuCDX6du4
sgiENfS52Hr8iBzM7ZgOAxb31XDJJ6+KLDKBcNS1fu6zhMV/fNJT6U+19FJV8dXe
cNj3LnUEAnbXIYtPdn/J95KKekJpxz3iCpv3f8EXfzThPNhjNPjRAgMBAAGjezB5
MAkGA1UdEwQCMAAwLAYJYIZIAYb4QgENBB8WHU9wZW5TU0wgR2VuZXJhdGVkIENl
cnRpZmljYXRlMB0GA1UdDgQWBBQ/FvJYPDpDLpaF3qu3M03Lu0GW6DAfBgNVHSME
GDAWgBRVM97IyJB1I/WTEHf+gvv9pcxK7jANBgkqhkiG9w0BAQUFAAOBgQBF7kxC
RT2VfIGRsi3UfZQcdoV555W1mZlteuIO1FvnmhEgouSBC0akeER58HhVtBby1Efk
02LIX51sYFrE2Uq1migLGP6qCw+Bl7kSWFEhbkONUCBPU7ZJjSk2bXdibbhhsVLc
TGD8B71MeLtdEfzRV1zt/SekAPX0Xm9CUSM8Og==
-----END CERTIFICATE-----
